target datalayout = "e-m:e-p270:32:32-p271:32:32-p272:64:64-i64:64-i128:128-f80:128-n8:16:32:64-S128"
target triple = "x86_64-pc-linux-gnu"

%struct.HeapTupleData = type { i32, %struct.ItemPointerData, i32, ptr }
%struct.ItemPointerData = type { %struct.BlockIdData, i16 }
%struct.BlockIdData = type { i16, i16 }
%struct.HeapTupleHeaderData = type { %union.anon, %struct.ItemPointerData, i16, i16, i8, [0 x i8] }
%union.anon = type { %struct.HeapTupleFields }
%struct.HeapTupleFields = type { i32, i32, %union.anon.0 }
%union.anon.0 = type { i32 }
%struct.oidvector = type { i32, i32, i32, i32, i32, i32, [0 x i32] }
%struct.FormData_pg_index = type { i32, i32, i16, i16, i8, i8, i8, i8, i8, i8, i8, i8, i8, i8, i8, %struct.int2vector }
%struct.int2vector = type { i32, i32, i32, i32, i32, i32, [0 x i16] }

; Function Attrs: inlinehint nounwind uwtable
define internal ptr @DatumGetPointer(i64 noundef %0) #2 {
  %2 = alloca i64, align 8
  store i64 %0, ptr %2, align 8
  %3 = load i64, ptr %2, align 8
  %4 = inttoptr i64 %3 to ptr
  ret ptr %4
}

; Function Attrs: inlinehint nounwind uwtable
define internal ptr @GETSTRUCT(ptr noundef %0) #2 {
  %2 = alloca ptr, align 8
  store ptr %0, ptr %2, align 8
  %3 = load ptr, ptr %2, align 8
  %4 = getelementptr inbounds nuw %struct.HeapTupleData, ptr %3, i32 0, i32 3
  %5 = load ptr, ptr %4, align 8
  %6 = load ptr, ptr %2, align 8
  %7 = getelementptr inbounds nuw %struct.HeapTupleData, ptr %6, i32 0, i32 3
  %8 = load ptr, ptr %7, align 8
  %9 = getelementptr inbounds nuw %struct.HeapTupleHeaderData, ptr %8, i32 0, i32 4
  %10 = load i8, ptr %9, align 2
  %11 = zext i8 %10 to i32
  %12 = sext i32 %11 to i64
  %13 = getelementptr inbounds i8, ptr %5, i64 %12
  ret ptr %13
}

; Function Attrs: inlinehint nounwind uwtable
define internal i64 @ObjectIdGetDatum(i32 noundef %0) #2 {
  %2 = alloca i32, align 4
  store i32 %0, ptr %2, align 4
  %3 = load i32, ptr %2, align 4
  %4 = zext i32 %3 to i64
  ret i64 %4
}

; Function Attrs: nounwind uwtable
define dso_local i32 @get_index_column_opclass(i32 noundef %0, i32 noundef %1) #0 {
  %3 = alloca i32, align 4
  %4 = alloca i32, align 4
  %5 = alloca i32, align 4
  %6 = alloca ptr, align 8
  %7 = alloca ptr, align 8
  %8 = alloca i64, align 8
  %9 = alloca ptr, align 8
  %10 = alloca i32, align 4
  %11 = alloca i32, align 4
  store i32 %0, ptr %4, align 4
  store i32 %1, ptr %5, align 4
  call void @llvm.lifetime.start.p0(i64 8, ptr %6) #7
  call void @llvm.lifetime.start.p0(i64 8, ptr %7) #7
  call void @llvm.lifetime.start.p0(i64 8, ptr %8) #7
  call void @llvm.lifetime.start.p0(i64 8, ptr %9) #7
  call void @llvm.lifetime.start.p0(i64 4, ptr %10) #7
  %12 = load i32, ptr %4, align 4
  %13 = call i64 @ObjectIdGetDatum(i32 noundef %12)
  %14 = call ptr @SearchSysCache1(i32 noundef 34, i64 noundef %13)
  store ptr %14, ptr %6, align 8
  %15 = load ptr, ptr %6, align 8
  %16 = icmp ne ptr %15, null
  br i1 %16, label %18, label %17

17:                                               ; preds = %2
  store i32 0, ptr %3, align 4
  store i32 1, ptr %11, align 4
  br label %43

18:                                               ; preds = %2
  %19 = load ptr, ptr %6, align 8
  %20 = call ptr @GETSTRUCT(ptr noundef %19)
  store ptr %20, ptr %7, align 8
  %21 = load i32, ptr %5, align 4
  %22 = load ptr, ptr %7, align 8
  %23 = getelementptr inbounds nuw %struct.FormData_pg_index, ptr %22, i32 0, i32 3
  %24 = load i16, ptr %23, align 2
  %25 = sext i16 %24 to i32
  %26 = icmp sgt i32 %21, %25
  br i1 %26, label %27, label %29

27:                                               ; preds = %18
  %28 = load ptr, ptr %6, align 8
  call void @ReleaseSysCache(ptr noundef %28)
  store i32 0, ptr %3, align 4
  store i32 1, ptr %11, align 4
  br label %43

29:                                               ; preds = %18
  %30 = load ptr, ptr %6, align 8
  %31 = call i64 @SysCacheGetAttrNotNull(i32 noundef 34, ptr noundef %30, i16 noundef signext 18)
  store i64 %31, ptr %8, align 8
  %32 = load i64, ptr %8, align 8
  %33 = call ptr @DatumGetPointer(i64 noundef %32)
  store ptr %33, ptr %9, align 8
  %34 = load ptr, ptr %9, align 8
  %35 = getelementptr inbounds nuw %struct.oidvector, ptr %34, i32 0, i32 6
  %36 = load i32, ptr %5, align 4
  %37 = sub i32 %36, 1
  %38 = sext i32 %37 to i64
  %39 = getelementptr inbounds [0 x i32], ptr %35, i64 0, i64 %38
  %40 = load i32, ptr %39, align 4
  store i32 %40, ptr %10, align 4
  %41 = load ptr, ptr %6, align 8
  call void @ReleaseSysCache(ptr noundef %41)
  %42 = load i32, ptr %10, align 4
  store i32 %42, ptr %3, align 4
  store i32 1, ptr %11, align 4
  br label %43

43:                                               ; preds = %29, %27, %17
  call void @llvm.lifetime.end.p0(i64 4, ptr %10) #7
  call void @llvm.lifetime.end.p0(i64 8, ptr %9) #7
  call void @llvm.lifetime.end.p0(i64 8, ptr %8) #7
  call void @llvm.lifetime.end.p0(i64 8, ptr %7) #7
  call void @llvm.lifetime.end.p0(i64 8, ptr %6) #7
  %44 = load i32, ptr %3, align 4
  ret i32 %44
}