; Function Attrs: nounwind uwtable
define dso_local i32 @get_index_column_opclass(i32 noundef %0, i32 noundef %1) local_unnamed_addr #0 {
  %3 = zext i32 %0 to i64
  %4 = tail call ptr @SearchSysCache1(i32 noundef 34, i64 noundef %3) #8
  %.not = icmp eq ptr %4, null
  br i1 %.not, label %23, label %5

5:                                                ; preds = %2
  %6 = getelementptr i8, ptr %4, i64 16
  %.val = load ptr, ptr %6, align 8
  %7 = getelementptr inbounds nuw i8, ptr %.val, i64 22
  %8 = load i8, ptr %7, align 2
  %9 = zext i8 %8 to i64
  %10 = getelementptr inbounds nuw i8, ptr %.val, i64 %9
  %11 = getelementptr inbounds nuw i8, ptr %10, i64 10
  %12 = load i16, ptr %11, align 2
  %13 = sext i16 %12 to i32
  %14 = icmp sgt i32 %1, %13
  br i1 %14, label %.sink.split, label %15

15:                                               ; preds = %5
  %16 = tail call i64 @SysCacheGetAttrNotNull(i32 noundef 34, ptr noundef nonnull %4, i16 noundef signext 18) #8
  %17 = inttoptr i64 %16 to ptr
  %18 = getelementptr inbounds nuw i8, ptr %17, i64 24
  %19 = add i32 %1, -1
  %20 = sext i32 %19 to i64
  %21 = getelementptr inbounds [0 x i32], ptr %18, i64 0, i64 %20
  %22 = load i32, ptr %21, align 4
  br label %.sink.split

.sink.split:                                      ; preds = %5, %15
  %.0.ph = phi i32 [ %22, %15 ], [ 0, %5 ]
  tail call void @ReleaseSysCache(ptr noundef nonnull %4) #8
  br label %23

23:                                               ; preds = %.sink.split, %2
  %.0 = phi i32 [ 0, %2 ], [ %.0.ph, %.sink.split ]
  ret i32 %.0
}